target datalayout = "e-m:e-p270:32:32-p271:32:32-p272:64:64-i64:64-i128:128-f80:128-n8:16:32:64-S128"
target triple = "x86_64-pc-linux-gnu"

%class.symbol = type { ptr }
%"class.datalog::mk_synchronize" = type { %"class.datalog::rule_transformer::plugin", ptr, ptr, ptr, %class.scoped_ptr, %class.scoped_ptr.0, %class.map }
%"class.datalog::rule_transformer::plugin" = type { ptr, i32, i8, ptr }
%class.scoped_ptr = type { ptr }
%class.scoped_ptr.0 = type { ptr }
%class.map = type { %class.table2map }
%class.table2map = type { %class.core_hashtable }
%class.core_hashtable = type <{ ptr, i32, i32, i32, [4 x i8] }>
%class.ptr_vector.100 = type { %class.vector.101 }
%class.vector.101 = type { ptr }
%"class.datalog::rule" = type { %"class.datalog::accounted_object.base", ptr, ptr, i32, i32, i32, i32, %class.symbol, [0 x ptr] }
%"class.datalog::accounted_object.base" = type <{ ptr, ptr, %"struct.datalog::costs", %"struct.datalog::costs", i8 }>
%"struct.datalog::costs" = type { i32, i32 }
%class.app = type { %class.expr, ptr, i32, %struct.app_flags, [0 x ptr] }
%class.expr = type { %class.ast }
%class.ast = type { i32, i32, i32, i32 }
%struct.app_flags = type <{ i16, i8, i8 }>
%"class.datalog::rule_stratifier" = type { ptr, %class.ptr_vector.134, %class.obj_map.136, %class.ptr_vector.100, %class.ptr_vector.100, %class.obj_map.136, %class.ptr_vector.134, %class.obj_map.136, i32, i32 }
%class.ptr_vector.134 = type { %class.vector.135 }
%class.vector.135 = type { ptr }
%class.obj_map.136 = type { %class.core_hashtable.137 }
%class.core_hashtable.137 = type <{ ptr, i32, i32, i32, [4 x i8] }>
%class.core_hashtable.69 = type <{ ptr, i32, i32, i32, [4 x i8] }>
%class.obj_hash_entry.150 = type { ptr }

; Function Attrs: mustprogress nounwind uwtable
define linkonce_odr hidden noundef zeroext i1 @_ZNK6ptr_eqI9func_declEclEPS0_S2_(ptr noundef nonnull align 1 dereferenceable(1) %0, ptr noundef %1, ptr noundef %2) #5 comdat align 2 {
  %4 = alloca ptr, align 8
  %5 = alloca ptr, align 8
  %6 = alloca ptr, align 8
  store ptr %0, ptr %4, align 8, !tbaa !493
  store ptr %1, ptr %5, align 8, !tbaa !239
  store ptr %2, ptr %6, align 8, !tbaa !239
  %7 = load ptr, ptr %5, align 8, !tbaa !239
  %8 = load ptr, ptr %6, align 8, !tbaa !239
  %9 = icmp eq ptr %7, %8
  ret i1 %9
}

; Function Attrs: mustprogress nounwind uwtable
define linkonce_odr hidden noundef i32 @_ZNK3ast4hashEv(ptr noundef nonnull align 4 dereferenceable(16) %0) #5 comdat align 2 {
  %2 = alloca ptr, align 8
  store ptr %0, ptr %2, align 8, !tbaa !442
  %3 = load ptr, ptr %2, align 8
  %4 = getelementptr inbounds nuw %class.ast, ptr %3, i32 0, i32 3
  %5 = load i32, ptr %4, align 4, !tbaa !492
  ret i32 %5
}

; Function Attrs: mustprogress uwtable
define linkonce_odr hidden noundef i32 @_ZNK12obj_ptr_hashI9func_declEclEPS0_(ptr noundef nonnull align 1 dereferenceable(1) %0, ptr noundef %1) #4 comdat align 2 {
  %3 = alloca ptr, align 8
  %4 = alloca ptr, align 8
  store ptr %0, ptr %3, align 8, !tbaa !490
  store ptr %1, ptr %4, align 8, !tbaa !239
  %5 = load ptr, ptr %4, align 8, !tbaa !239
  %6 = call noundef i32 @_ZNK3ast4hashEv(ptr noundef nonnull align 4 dereferenceable(16) %5)
  ret i32 %6
}

; Function Attrs: mustprogress nounwind uwtable
define linkonce_odr hidden noundef zeroext i1 @_ZNK14obj_hash_entryI9func_declE7is_freeEv(ptr noundef nonnull align 8 dereferenceable(8) %0) #5 comdat align 2 {
  %2 = alloca ptr, align 8
  store ptr %0, ptr %2, align 8, !tbaa !485
  %3 = load ptr, ptr %2, align 8
  %4 = getelementptr inbounds nuw %class.obj_hash_entry.150, ptr %3, i32 0, i32 0
  %5 = load ptr, ptr %4, align 8, !tbaa !488
  %6 = icmp eq ptr %5, null
  ret i1 %6
}

; Function Attrs: mustprogress uwtable
define linkonce_odr hidden noundef zeroext i1 @_ZNK14core_hashtableI14obj_hash_entryI9func_declE12obj_ptr_hashIS1_E6ptr_eqIS1_EE6equalsERKPS1_SA_(ptr noundef nonnull align 8 dereferenceable(20) %0, ptr noundef nonnull align 8 dereferenceable(8) %1, ptr noundef nonnull align 8 dereferenceable(8) %2) #4 comdat align 2 {
  %4 = alloca ptr, align 8
  %5 = alloca ptr, align 8
  %6 = alloca ptr, align 8
  store ptr %0, ptr %4, align 8, !tbaa !259
  store ptr %1, ptr %5, align 8, !tbaa !261
  store ptr %2, ptr %6, align 8, !tbaa !261
  %7 = load ptr, ptr %4, align 8
  %8 = load ptr, ptr %5, align 8, !tbaa !261
  %9 = load ptr, ptr %8, align 8, !tbaa !239
  %10 = load ptr, ptr %6, align 8, !tbaa !261
  %11 = load ptr, ptr %10, align 8, !tbaa !239
  %12 = call noundef zeroext i1 @_ZNK6ptr_eqI9func_declEclEPS0_S2_(ptr noundef nonnull align 1 dereferenceable(1) %7, ptr noundef %9, ptr noundef %11)
  ret i1 %12
}

; Function Attrs: mustprogress nounwind uwtable
define linkonce_odr hidden noundef nonnull align 8 dereferenceable(8) ptr @_ZN14obj_hash_entryI9func_declE8get_dataEv(ptr noundef nonnull align 8 dereferenceable(8) %0) #5 comdat align 2 {
  %2 = alloca ptr, align 8
  store ptr %0, ptr %2, align 8, !tbaa !485
  %3 = load ptr, ptr %2, align 8
  %4 = getelementptr inbounds nuw %class.obj_hash_entry.150, ptr %3, i32 0, i32 0
  ret ptr %4
}

; Function Attrs: mustprogress nounwind uwtable
define linkonce_odr hidden noundef i32 @_ZNK14obj_hash_entryI9func_declE8get_hashEv(ptr noundef nonnull align 8 dereferenceable(8) %0) #5 comdat align 2 {
  %2 = alloca ptr, align 8
  store ptr %0, ptr %2, align 8, !tbaa !485
  %3 = load ptr, ptr %2, align 8
  %4 = getelementptr inbounds nuw %class.obj_hash_entry.150, ptr %3, i32 0, i32 0
  %5 = load ptr, ptr %4, align 8, !tbaa !488
  %6 = call noundef i32 @_ZNK3ast4hashEv(ptr noundef nonnull align 4 dereferenceable(16) %5)
  ret i32 %6
}

; Function Attrs: mustprogress nounwind uwtable
define linkonce_odr hidden noundef zeroext i1 @_ZNK14obj_hash_entryI9func_declE7is_usedEv(ptr noundef nonnull align 8 dereferenceable(8) %0) #5 comdat align 2 {
  %2 = alloca ptr, align 8
  store ptr %0, ptr %2, align 8, !tbaa !485
  %3 = load ptr, ptr %2, align 8
  %4 = getelementptr inbounds nuw %class.obj_hash_entry.150, ptr %3, i32 0, i32 0
  %5 = load ptr, ptr %4, align 8, !tbaa !488
  %6 = icmp ne ptr %5, null
  br i1 %6, label %7, label %11

7:                                                ; preds = %1
  %8 = getelementptr inbounds nuw %class.obj_hash_entry.150, ptr %3, i32 0, i32 0
  %9 = load ptr, ptr %8, align 8, !tbaa !488
  %10 = icmp ne ptr %9, inttoptr (i64 1 to ptr)
  br label %11

11:                                               ; preds = %7, %1
  %12 = phi i1 [ false, %1 ], [ %10, %7 ]
  ret i1 %12
}

; Function Attrs: mustprogress uwtable
define linkonce_odr hidden noundef i32 @_ZNK14core_hashtableI14obj_hash_entryI9func_declE12obj_ptr_hashIS1_E6ptr_eqIS1_EE8get_hashERKPS1_(ptr noundef nonnull align 8 dereferenceable(20) %0, ptr noundef nonnull align 8 dereferenceable(8) %1) #4 comdat align 2 {
  %3 = alloca ptr, align 8
  %4 = alloca ptr, align 8
  store ptr %0, ptr %3, align 8, !tbaa !259
  store ptr %1, ptr %4, align 8, !tbaa !261
  %5 = load ptr, ptr %3, align 8
  %6 = load ptr, ptr %4, align 8, !tbaa !261
  %7 = load ptr, ptr %6, align 8, !tbaa !239
  %8 = call noundef i32 @_ZNK12obj_ptr_hashI9func_declEclEPS0_(ptr noundef nonnull align 1 dereferenceable(1) %5, ptr noundef %7)
  ret i32 %8
}

; Function Attrs: mustprogress uwtable
define linkonce_odr hidden noundef ptr @_ZNK14core_hashtableI14obj_hash_entryI9func_declE12obj_ptr_hashIS1_E6ptr_eqIS1_EE9find_coreERKPS1_(ptr noundef nonnull align 8 dereferenceable(20) %0, ptr noundef nonnull align 8 dereferenceable(8) %1) #4 comdat align 2 {
  %3 = alloca ptr, align 8
  %4 = alloca ptr, align 8
  %5 = alloca ptr, align 8
  %6 = alloca i32, align 4
  %7 = alloca i32, align 4
  %8 = alloca i32, align 4
  %9 = alloca ptr, align 8
  %10 = alloca ptr, align 8
  %11 = alloca ptr, align 8
  %12 = alloca i32, align 4
  store ptr %0, ptr %4, align 8, !tbaa !259
  store ptr %1, ptr %5, align 8, !tbaa !261
  %13 = load ptr, ptr %4, align 8
  call void @llvm.lifetime.start.p0(i64 4, ptr %6) #3
  %14 = load ptr, ptr %5, align 8, !tbaa !261
  %15 = call noundef i32 @_ZNK14core_hashtableI14obj_hash_entryI9func_declE12obj_ptr_hashIS1_E6ptr_eqIS1_EE8get_hashERKPS1_(ptr noundef nonnull align 8 dereferenceable(20) %13, ptr noundef nonnull align 8 dereferenceable(8) %14)
  store i32 %15, ptr %6, align 4, !tbaa !10
  call void @llvm.lifetime.start.p0(i64 4, ptr %7) #3
  %16 = getelementptr inbounds nuw %class.core_hashtable.69, ptr %13, i32 0, i32 1
  %17 = load i32, ptr %16, align 8, !tbaa !312
  %18 = sub i32 %17, 1
  store i32 %18, ptr %7, align 4, !tbaa !10
  call void @llvm.lifetime.start.p0(i64 4, ptr %8) #3
  %19 = load i32, ptr %6, align 4, !tbaa !10
  %20 = load i32, ptr %7, align 4, !tbaa !10
  %21 = and i32 %19, %20
  store i32 %21, ptr %8, align 4, !tbaa !10
  call void @llvm.lifetime.start.p0(i64 8, ptr %9) #3
  %22 = getelementptr inbounds nuw %class.core_hashtable.69, ptr %13, i32 0, i32 0
  %23 = load ptr, ptr %22, align 8, !tbaa !311
  %24 = load i32, ptr %8, align 4, !tbaa !10
  %25 = zext i32 %24 to i64
  %26 = getelementptr inbounds nuw %class.obj_hash_entry.150, ptr %23, i64 %25
  store ptr %26, ptr %9, align 8, !tbaa !485
  call void @llvm.lifetime.start.p0(i64 8, ptr %10) #3
  %27 = getelementptr inbounds nuw %class.core_hashtable.69, ptr %13, i32 0, i32 0
  %28 = load ptr, ptr %27, align 8, !tbaa !311
  %29 = getelementptr inbounds nuw %class.core_hashtable.69, ptr %13, i32 0, i32 1
  %30 = load i32, ptr %29, align 8, !tbaa !312
  %31 = zext i32 %30 to i64
  %32 = getelementptr inbounds nuw %class.obj_hash_entry.150, ptr %28, i64 %31
  store ptr %32, ptr %10, align 8, !tbaa !485
  call void @llvm.lifetime.start.p0(i64 8, ptr %11) #3
  %33 = load ptr, ptr %9, align 8, !tbaa !485
  store ptr %33, ptr %11, align 8, !tbaa !485
  br label %34

34:                                               ; preds = %61, %2
  %35 = load ptr, ptr %11, align 8, !tbaa !485
  %36 = load ptr, ptr %10, align 8, !tbaa !485
  %37 = icmp ne ptr %35, %36
  br i1 %37, label %38, label %64

38:                                               ; preds = %34
  %39 = load ptr, ptr %11, align 8, !tbaa !485
  %40 = call noundef zeroext i1 @_ZNK14obj_hash_entryI9func_declE7is_usedEv(ptr noundef nonnull align 8 dereferenceable(8) %39)
  br i1 %40, label %41, label %54

41:                                               ; preds = %38
  %42 = load ptr, ptr %11, align 8, !tbaa !485
  %43 = call noundef i32 @_ZNK14obj_hash_entryI9func_declE8get_hashEv(ptr noundef nonnull align 8 dereferenceable(8) %42)
  %44 = load i32, ptr %6, align 4, !tbaa !10
  %45 = icmp eq i32 %43, %44
  br i1 %45, label %46, label %53

46:                                               ; preds = %41
  %47 = load ptr, ptr %11, align 8, !tbaa !485
  %48 = call noundef nonnull align 8 dereferenceable(8) ptr @_ZN14obj_hash_entryI9func_declE8get_dataEv(ptr noundef nonnull align 8 dereferenceable(8) %47)
  %49 = load ptr, ptr %5, align 8, !tbaa !261
  %50 = call noundef zeroext i1 @_ZNK14core_hashtableI14obj_hash_entryI9func_declE12obj_ptr_hashIS1_E6ptr_eqIS1_EE6equalsERKPS1_SA_(ptr noundef nonnull align 8 dereferenceable(20) %13, ptr noundef nonnull align 8 dereferenceable(8) %48, ptr noundef nonnull align 8 dereferenceable(8) %49)
  br i1 %50, label %51, label %53

51:                                               ; preds = %46
  %52 = load ptr, ptr %11, align 8, !tbaa !485
  store ptr %52, ptr %3, align 8
  store i32 1, ptr %12, align 4
  br label %98

53:                                               ; preds = %46, %41
  br label %60

54:                                               ; preds = %38
  %55 = load ptr, ptr %11, align 8, !tbaa !485
  %56 = call noundef zeroext i1 @_ZNK14obj_hash_entryI9func_declE7is_freeEv(ptr noundef nonnull align 8 dereferenceable(8) %55)
  br i1 %56, label %57, label %58

57:                                               ; preds = %54
  store ptr null, ptr %3, align 8
  store i32 1, ptr %12, align 4
  br label %98

58:                                               ; preds = %54
  br label %59

59:                                               ; preds = %58
  br label %60

60:                                               ; preds = %59, %53
  br label %61

61:                                               ; preds = %60
  %62 = load ptr, ptr %11, align 8, !tbaa !485
  %63 = getelementptr inbounds nuw %class.obj_hash_entry.150, ptr %62, i32 1
  store ptr %63, ptr %11, align 8, !tbaa !485
  br label %34, !llvm.loop !486

64:                                               ; preds = %34
  %65 = getelementptr inbounds nuw %class.core_hashtable.69, ptr %13, i32 0, i32 0
  %66 = load ptr, ptr %65, align 8, !tbaa !311
  store ptr %66, ptr %11, align 8, !tbaa !485
  br label %67

67:                                               ; preds = %94, %64
  %68 = load ptr, ptr %11, align 8, !tbaa !485
  %69 = load ptr, ptr %9, align 8, !tbaa !485
  %70 = icmp ne ptr %68, %69
  br i1 %70, label %71, label %97

71:                                               ; preds = %67
  %72 = load ptr, ptr %11, align 8, !tbaa !485
  %73 = call noundef zeroext i1 @_ZNK14obj_hash_entryI9func_declE7is_usedEv(ptr noundef nonnull align 8 dereferenceable(8) %72)
  br i1 %73, label %74, label %87

74:                                               ; preds = %71
  %75 = load ptr, ptr %11, align 8, !tbaa !485
  %76 = call noundef i32 @_ZNK14obj_hash_entryI9func_declE8get_hashEv(ptr noundef nonnull align 8 dereferenceable(8) %75)
  %77 = load i32, ptr %6, align 4, !tbaa !10
  %78 = icmp eq i32 %76, %77
  br i1 %78, label %79, label %86

79:                                               ; preds = %74
  %80 = load ptr, ptr %11, align 8, !tbaa !485
  %81 = call noundef nonnull align 8 dereferenceable(8) ptr @_ZN14obj_hash_entryI9func_declE8get_dataEv(ptr noundef nonnull align 8 dereferenceable(8) %80)
  %82 = load ptr, ptr %5, align 8, !tbaa !261
  %83 = call noundef zeroext i1 @_ZNK14core_hashtableI14obj_hash_entryI9func_declE12obj_ptr_hashIS1_E6ptr_eqIS1_EE6equalsERKPS1_SA_(ptr noundef nonnull align 8 dereferenceable(20) %13, ptr noundef nonnull align 8 dereferenceable(8) %81, ptr noundef nonnull align 8 dereferenceable(8) %82)
  br i1 %83, label %84, label %86

84:                                               ; preds = %79
  %85 = load ptr, ptr %11, align 8, !tbaa !485
  store ptr %85, ptr %3, align 8
  store i32 1, ptr %12, align 4
  br label %98

86:                                               ; preds = %79, %74
  br label %93

87:                                               ; preds = %71
  %88 = load ptr, ptr %11, align 8, !tbaa !485
  %89 = call noundef zeroext i1 @_ZNK14obj_hash_entryI9func_declE7is_freeEv(ptr noundef nonnull align 8 dereferenceable(8) %88)
  br i1 %89, label %90, label %91

90:                                               ; preds = %87
  store ptr null, ptr %3, align 8
  store i32 1, ptr %12, align 4
  br label %98

91:                                               ; preds = %87
  br label %92

92:                                               ; preds = %91
  br label %93

93:                                               ; preds = %92, %86
  br label %94

94:                                               ; preds = %93
  %95 = load ptr, ptr %11, align 8, !tbaa !485
  %96 = getelementptr inbounds nuw %class.obj_hash_entry.150, ptr %95, i32 1
  store ptr %96, ptr %11, align 8, !tbaa !485
  br label %67, !llvm.loop !487

97:                                               ; preds = %67
  store ptr null, ptr %3, align 8
  store i32 1, ptr %12, align 4
  br label %98

98:                                               ; preds = %97, %90, %84, %57, %51
  call void @llvm.lifetime.end.p0(i64 8, ptr %11) #3
  call void @llvm.lifetime.end.p0(i64 8, ptr %10) #3
  call void @llvm.lifetime.end.p0(i64 8, ptr %9) #3
  call void @llvm.lifetime.end.p0(i64 4, ptr %8) #3
  call void @llvm.lifetime.end.p0(i64 4, ptr %7) #3
  call void @llvm.lifetime.end.p0(i64 4, ptr %6) #3
  %99 = load ptr, ptr %3, align 8
  ret ptr %99
}

; Function Attrs: mustprogress uwtable
define linkonce_odr hidden noundef zeroext i1 @_ZNK14core_hashtableI14obj_hash_entryI9func_declE12obj_ptr_hashIS1_E6ptr_eqIS1_EE8containsERKPS1_(ptr noundef nonnull align 8 dereferenceable(20) %0, ptr noundef nonnull align 8 dereferenceable(8) %1) #4 comdat align 2 {
  %3 = alloca ptr, align 8
  %4 = alloca ptr, align 8
  store ptr %0, ptr %3, align 8, !tbaa !259
  store ptr %1, ptr %4, align 8, !tbaa !261
  %5 = load ptr, ptr %3, align 8
  %6 = load ptr, ptr %4, align 8, !tbaa !261
  %7 = call noundef ptr @_ZNK14core_hashtableI14obj_hash_entryI9func_declE12obj_ptr_hashIS1_E6ptr_eqIS1_EE9find_coreERKPS1_(ptr noundef nonnull align 8 dereferenceable(20) %5, ptr noundef nonnull align 8 dereferenceable(8) %6)
  %8 = icmp ne ptr %7, null
  ret i1 %8
}

; Function Attrs: mustprogress nounwind uwtable
define linkonce_odr hidden noundef nonnull align 8 dereferenceable(8) ptr @_ZNK6vectorIP13obj_hashtableI9func_declELb0EjEixEj(ptr noundef nonnull align 8 dereferenceable(8) %0, i32 noundef %1) #5 comdat align 2 {
  %3 = alloca ptr, align 8
  %4 = alloca i32, align 4
  store ptr %0, ptr %3, align 8, !tbaa !254
  store i32 %1, ptr %4, align 4, !tbaa !10
  %5 = load ptr, ptr %3, align 8
  %6 = getelementptr inbounds nuw %class.vector.135, ptr %5, i32 0, i32 0
  %7 = load ptr, ptr %6, align 8, !tbaa !256
  %8 = load i32, ptr %4, align 4, !tbaa !10
  %9 = zext i32 %8 to i64
  %10 = getelementptr inbounds nuw ptr, ptr %7, i64 %9
  ret ptr %10
}

; Function Attrs: mustprogress nounwind uwtable
define linkonce_odr hidden noundef nonnull align 8 dereferenceable(8) ptr @_ZNK7datalog15rule_stratifier10get_stratsEv(ptr noundef nonnull align 8 dereferenceable(120) %0) #5 comdat align 2 {
  %2 = alloca ptr, align 8
  store ptr %0, ptr %2, align 8, !tbaa !230
  %3 = load ptr, ptr %2, align 8
  %4 = getelementptr inbounds nuw %"class.datalog::rule_stratifier", ptr %3, i32 0, i32 1
  ret ptr %4
}

; Function Attrs: mustprogress nounwind uwtable
define linkonce_odr hidden noundef ptr @_ZNK10scoped_ptrIN7datalog15rule_stratifierEEptEv(ptr noundef nonnull align 8 dereferenceable(8) %0) #5 comdat align 2 {
  %2 = alloca ptr, align 8
  store ptr %0, ptr %2, align 8, !tbaa !228
  %3 = load ptr, ptr %2, align 8
  %4 = getelementptr inbounds nuw %class.scoped_ptr.0, ptr %3, i32 0, i32 0
  %5 = load ptr, ptr %4, align 8, !tbaa !231
  ret ptr %5
}

; Function Attrs: mustprogress nounwind uwtable
define linkonce_odr hidden noundef ptr @_ZNK3app8get_declEv(ptr noundef nonnull align 8 dereferenceable(32) %0) #5 comdat align 2 {
  %2 = alloca ptr, align 8
  store ptr %0, ptr %2, align 8, !tbaa !248
  %3 = load ptr, ptr %2, align 8
  %4 = getelementptr inbounds nuw %class.app, ptr %3, i32 0, i32 1
  %5 = load ptr, ptr %4, align 8, !tbaa !249
  ret ptr %5
}

; Function Attrs: mustprogress nounwind uwtable
define linkonce_odr hidden noundef ptr @_ZNK7datalog4rule8get_headEv(ptr noundef nonnull align 8 dereferenceable(80) %0) #5 comdat align 2 {
  %2 = alloca ptr, align 8
  store ptr %0, ptr %2, align 8, !tbaa !238
  %3 = load ptr, ptr %2, align 8
  %4 = getelementptr inbounds nuw %"class.datalog::rule", ptr %3, i32 0, i32 1
  %5 = load ptr, ptr %4, align 8, !tbaa !244
  ret ptr %5
}

; Function Attrs: mustprogress uwtable
define hidden noundef zeroext i1 @_ZNK7datalog14mk_synchronize12is_recursiveERNS_4ruleER9func_decl(ptr noundef nonnull align 8 dereferenceable(88) %0, ptr noundef nonnull align 8 dereferenceable(80) %1, ptr noundef nonnull align 8 dereferenceable(48) %2) #4 align 2 {
  %4 = alloca i1, align 1
  %5 = alloca ptr, align 8
  %6 = alloca ptr, align 8
  %7 = alloca ptr, align 8
  %8 = alloca ptr, align 8
  %9 = alloca i32, align 4
  %10 = alloca ptr, align 8
  %11 = alloca i32, align 4
  %12 = alloca ptr, align 8
  store ptr %0, ptr %5, align 8, !tbaa !3
  store ptr %1, ptr %6, align 8, !tbaa !238
  store ptr %2, ptr %7, align 8, !tbaa !239
  %13 = load ptr, ptr %5, align 8
  call void @llvm.lifetime.start.p0(i64 8, ptr %8) #3
  %14 = load ptr, ptr %6, align 8, !tbaa !238
  %15 = call noundef ptr @_ZNK7datalog4rule8get_headEv(ptr noundef nonnull align 8 dereferenceable(80) %14)
  %16 = call noundef ptr @_ZNK3app8get_declEv(ptr noundef nonnull align 8 dereferenceable(32) %15)
  store ptr %16, ptr %8, align 8, !tbaa !239
  %17 = load ptr, ptr %8, align 8, !tbaa !239
  %18 = load ptr, ptr %7, align 8, !tbaa !239
  %19 = icmp eq ptr %17, %18
  br i1 %19, label %20, label %21

20:                                               ; preds = %3
  store i1 true, ptr %4, align 1
  store i32 1, ptr %9, align 4
  br label %35

21:                                               ; preds = %3
  call void @llvm.lifetime.start.p0(i64 8, ptr %10) #3
  %22 = getelementptr inbounds nuw %"class.datalog::mk_synchronize", ptr %13, i32 0, i32 5
  %23 = call noundef ptr @_ZNK10scoped_ptrIN7datalog15rule_stratifierEEptEv(ptr noundef nonnull align 8 dereferenceable(8) %22)
  %24 = call noundef nonnull align 8 dereferenceable(8) ptr @_ZNK7datalog15rule_stratifier10get_stratsEv(ptr noundef nonnull align 8 dereferenceable(120) %23)
  store ptr %24, ptr %10, align 8, !tbaa !240
  call void @llvm.lifetime.start.p0(i64 4, ptr %11) #3
  %25 = getelementptr inbounds nuw %"class.datalog::mk_synchronize", ptr %13, i32 0, i32 5
  %26 = call noundef ptr @_ZNK10scoped_ptrIN7datalog15rule_stratifierEEptEv(ptr noundef nonnull align 8 dereferenceable(8) %25)
  %27 = load ptr, ptr %8, align 8, !tbaa !239
  %28 = call noundef i32 @_ZNK7datalog15rule_stratifier19get_predicate_stratEP9func_decl(ptr noundef nonnull align 8 dereferenceable(120) %26, ptr noundef %27)
  store i32 %28, ptr %11, align 4, !tbaa !10
  %29 = load ptr, ptr %10, align 8, !tbaa !240
  %30 = load i32, ptr %11, align 4, !tbaa !10
  %31 = call noundef nonnull align 8 dereferenceable(8) ptr @_ZNK6vectorIP13obj_hashtableI9func_declELb0EjEixEj(ptr noundef nonnull align 8 dereferenceable(8) %29, i32 noundef %30)
  %32 = load ptr, ptr %31, align 8, !tbaa !242
  call void @llvm.lifetime.start.p0(i64 8, ptr %12) #3
  %33 = load ptr, ptr %7, align 8, !tbaa !239
  store ptr %33, ptr %12, align 8, !tbaa !239
  %34 = call noundef zeroext i1 @_ZNK14core_hashtableI14obj_hash_entryI9func_declE12obj_ptr_hashIS1_E6ptr_eqIS1_EE8containsERKPS1_(ptr noundef nonnull align 8 dereferenceable(20) %32, ptr noundef nonnull align 8 dereferenceable(8) %12)
  store i1 %34, ptr %4, align 1
  call void @llvm.lifetime.end.p0(i64 8, ptr %12) #3
  store i32 1, ptr %9, align 4
  call void @llvm.lifetime.end.p0(i64 4, ptr %11) #3
  call void @llvm.lifetime.end.p0(i64 8, ptr %10) #3
  br label %35

35:                                               ; preds = %21, %20
  call void @llvm.lifetime.end.p0(i64 8, ptr %8) #3
  %36 = load i1, ptr %4, align 1
  ret i1 %36
}