; Function Attrs: mustprogress uwtable
define hidden noundef zeroext i1 @_ZNK7datalog14mk_synchronize12is_recursiveERNS_4ruleER9func_decl(ptr noundef nonnull readonly align 8 captures(none) dereferenceable(88) %0, ptr noundef nonnull readonly align 8 captures(none) dereferenceable(80) %1, ptr noundef nonnull readonly align 8 captures(address) dereferenceable(48) %2) local_unnamed_addr #3 align 2 {
  %4 = getelementptr inbounds nuw i8, ptr %1, i64 40
  %5 = load ptr, ptr %4, align 8, !tbaa !224
  %6 = getelementptr inbounds nuw i8, ptr %5, i64 16
  %7 = load ptr, ptr %6, align 8, !tbaa !228
  %8 = icmp eq ptr %7, %2
  br i1 %8, label %_ZNK14core_hashtableI14obj_hash_entryI9func_declE12obj_ptr_hashIS1_E6ptr_eqIS1_EE8containsERKPS1_.exit, label %9

9:                                                ; preds = %3
  %10 = getelementptr inbounds nuw i8, ptr %0, i64 56
  %11 = load ptr, ptr %10, align 8, !tbaa !220
  %12 = getelementptr inbounds nuw i8, ptr %11, i64 8
  %13 = tail call noundef i32 @_ZNK7datalog15rule_stratifier19get_predicate_stratEP9func_decl(ptr noundef nonnull align 8 dereferenceable(120) %11, ptr noundef %7)
  %14 = load ptr, ptr %12, align 8, !tbaa !233
  %15 = zext i32 %13 to i64
  %16 = getelementptr inbounds nuw ptr, ptr %14, i64 %15
  %17 = load ptr, ptr %16, align 8, !tbaa !236
  %18 = getelementptr inbounds nuw i8, ptr %2, i64 12
  %19 = load i32, ptr %18, align 4, !tbaa !238
  %20 = getelementptr inbounds nuw i8, ptr %17, i64 8
  %21 = load i32, ptr %20, align 8, !tbaa !239
  %22 = add i32 %21, -1
  %23 = and i32 %22, %19
  %24 = load ptr, ptr %17, align 8, !tbaa !240
  %25 = zext i32 %23 to i64
  %26 = getelementptr inbounds nuw %class.obj_hash_entry.150, ptr %24, i64 %25
  %27 = zext i32 %21 to i64
  %28 = getelementptr inbounds nuw %class.obj_hash_entry.150, ptr %24, i64 %27
  %.not35.i.i = icmp eq i32 %23, %21
  br i1 %.not35.i.i, label %.preheader.i.i, label %.lr.ph.i.i

.preheader.i.i:                                   ; preds = %35, %9
  %.not2737.i.i = icmp eq i32 %23, 0
  br i1 %.not2737.i.i, label %_ZNK14core_hashtableI14obj_hash_entryI9func_declE12obj_ptr_hashIS1_E6ptr_eqIS1_EE8containsERKPS1_.exit, label %.lr.ph39.i.i

.lr.ph.i.i:                                       ; preds = %9, %35
  %.036.i.i = phi ptr [ %36, %35 ], [ %26, %9 ]
  %29 = load ptr, ptr %.036.i.i, align 8, !tbaa !241
  %magicptr30.i.i = ptrtoint ptr %29 to i64
  switch i64 %magicptr30.i.i, label %30 [
    i64 0, label %_ZNK14core_hashtableI14obj_hash_entryI9func_declE12obj_ptr_hashIS1_E6ptr_eqIS1_EE8containsERKPS1_.exit
    i64 1, label %35
  ]

30:                                               ; preds = %.lr.ph.i.i
  %31 = getelementptr inbounds nuw i8, ptr %29, i64 12
  %32 = load i32, ptr %31, align 4, !tbaa !238
  %33 = icmp eq i32 %32, %19
  %34 = icmp eq ptr %29, %2
  %or.cond.i.i = and i1 %34, %33
  br i1 %or.cond.i.i, label %_ZNK14core_hashtableI14obj_hash_entryI9func_declE12obj_ptr_hashIS1_E6ptr_eqIS1_EE8containsERKPS1_.exit, label %35

35:                                               ; preds = %30, %.lr.ph.i.i
  %36 = getelementptr inbounds nuw i8, ptr %.036.i.i, i64 8
  %.not.i.i = icmp eq ptr %36, %28
  br i1 %.not.i.i, label %.preheader.i.i, label %.lr.ph.i.i, !llvm.loop !243

.lr.ph39.i.i:                                     ; preds = %.preheader.i.i, %43
  %.138.i.i = phi ptr [ %44, %43 ], [ %24, %.preheader.i.i ]
  %37 = load ptr, ptr %.138.i.i, align 8, !tbaa !241
  %magicptr32.i.i = ptrtoint ptr %37 to i64
  switch i64 %magicptr32.i.i, label %38 [
    i64 0, label %_ZNK14core_hashtableI14obj_hash_entryI9func_declE12obj_ptr_hashIS1_E6ptr_eqIS1_EE8containsERKPS1_.exit
    i64 1, label %43
  ]

38:                                               ; preds = %.lr.ph39.i.i
  %39 = getelementptr inbounds nuw i8, ptr %37, i64 12
  %40 = load i32, ptr %39, align 4, !tbaa !238
  %41 = icmp eq i32 %40, %19
  %42 = icmp eq ptr %37, %2
  %or.cond31.i.i = and i1 %42, %41
  br i1 %or.cond31.i.i, label %_ZNK14core_hashtableI14obj_hash_entryI9func_declE12obj_ptr_hashIS1_E6ptr_eqIS1_EE8containsERKPS1_.exit, label %43

43:                                               ; preds = %38, %.lr.ph39.i.i
  %44 = getelementptr inbounds nuw i8, ptr %.138.i.i, i64 8
  %.not27.i.i = icmp eq ptr %44, %26
  br i1 %.not27.i.i, label %_ZNK14core_hashtableI14obj_hash_entryI9func_declE12obj_ptr_hashIS1_E6ptr_eqIS1_EE8containsERKPS1_.exit, label %.lr.ph39.i.i, !llvm.loop !244

_ZNK14core_hashtableI14obj_hash_entryI9func_declE12obj_ptr_hashIS1_E6ptr_eqIS1_EE8containsERKPS1_.exit: ; preds = %30, %.lr.ph.i.i, %43, %38, %.lr.ph39.i.i, %.preheader.i.i, %3
  %.0 = phi i1 [ true, %3 ], [ false, %.preheader.i.i ], [ false, %43 ], [ true, %38 ], [ false, %.lr.ph39.i.i ], [ false, %.lr.ph.i.i ], [ true, %30 ]
  ret i1 %.0
}